CCS PCH C Compiler, Version 5.045, 5967               23-Nov-15 00:39

               Filename:   F:\Dropbox (Personal)\Doktorat\GitRepository\MCA Driver\MCA-REVC.X\build\default\production\main.lst

               ROM used:   1158 bytes (7%)
                           Largest free fragment is 15222
               RAM used:   198 (26%) at main() level
                           208 (27%) worst case
               Stack used: 1 locations (0 in main + 1 for interrupts)
               Stack size: 31

*
0000:  GOTO   03E6
*
0008:  MOVWF  04
000A:  MOVFF  FD8,05
000E:  MOVFF  FE0,06
0012:  MOVLB  0
0014:  MOVFF  FE9,0C
0018:  MOVFF  FEA,07
001C:  MOVFF  FE1,08
0020:  MOVFF  FE2,09
0024:  MOVFF  FD9,0A
0028:  MOVFF  FDA,0B
002C:  MOVFF  FF3,12
0030:  MOVFF  FF4,13
0034:  MOVFF  FFA,14
0038:  MOVFF  FF5,15
003C:  MOVFF  FF6,16
0040:  MOVFF  FF7,17
0044:  MOVFF  00,0E
0048:  MOVFF  01,0F
004C:  MOVFF  02,10
0050:  MOVFF  03,11
0054:  BTFSS  F9D.0
0056:  GOTO   0060
005A:  BTFSC  F9E.0
005C:  GOTO   0142
0060:  BTFSS  F9D.5
0062:  GOTO   006C
0066:  BTFSC  F9E.5
0068:  GOTO   00C6
006C:  BTFSS  F9D.4
006E:  GOTO   0078
0072:  BTFSC  F9E.4
0074:  GOTO   0116
0078:  MOVFF  0E,00
007C:  MOVFF  0F,01
0080:  MOVFF  10,02
0084:  MOVFF  11,03
0088:  MOVFF  0C,FE9
008C:  MOVFF  07,FEA
0090:  BSF    07.7
0092:  MOVFF  08,FE1
0096:  MOVFF  09,FE2
009A:  MOVFF  0A,FD9
009E:  MOVFF  0B,FDA
00A2:  MOVFF  12,FF3
00A6:  MOVFF  13,FF4
00AA:  MOVFF  14,FFA
00AE:  MOVFF  15,FF5
00B2:  MOVFF  16,FF6
00B6:  MOVFF  17,FF7
00BA:  MOVF   04,W
00BC:  MOVFF  06,FE0
00C0:  MOVFF  05,FD8
00C4:  RETFIE 0
.................... /*  
....................  * File:   main.c 
....................  * Author: Miroslav 
....................  * 
....................  * Created on November 19, 2015, 11:22 PM 
....................  */ 
....................  
.................... #include "main.h" 
.................... /*  
....................  * File:   main.h 
....................  * Author: Miroslav 
....................  * 
....................  * Created on November 19, 2015, 11:22 PM 
....................  */ 
....................  
.................... #ifndef main_H 
.................... #define main_H 
....................  
.................... #include <18F4431.h> 
.................... //////////// Standard Header file for the PIC18F4431 device //////////////// 
.................... /////////////////////////////////////////////////////////////////////////// 
.................... ////        (C) Copyright 1996, 2014 Custom Computer Services          //// 
.................... //// This source code may only be used by licensed users of the CCS C  //// 
.................... //// compiler.  This source code may only be distributed to other      //// 
.................... //// licensed users of the CCS C compiler.  No other use, reproduction //// 
.................... //// or distribution is permitted without written permission.          //// 
.................... //// Derivative programs created using this software in object code    //// 
.................... //// form are not restricted in any way.                               //// 
.................... /////////////////////////////////////////////////////////////////////////// 
.................... #device PIC18F4431 
*
0156:  MOVFF  FEC,FFA
015A:  MOVF   FED,F
015C:  MOVFF  FEF,FE8
0160:  MOVWF  FF9
0162:  RETURN 0
0164:  DATA 4D,65
0166:  DATA 73,73
0168:  DATA 61,67
016A:  DATA 65,20
016C:  DATA 72,65
016E:  DATA 63,65
0170:  DATA 69,76
0172:  DATA 65,20
0174:  DATA 64,6F
0176:  DATA 6E,65
0178:  DATA 2E,0D
017A:  DATA 0A,00
017C:  DATA 0D,0A
017E:  DATA 52,75
0180:  DATA 6E,6E
0182:  DATA 69,6E
0184:  DATA 67,2E
0186:  DATA 2E,2E
0188:  DATA 0D,0A
018A:  DATA 00,00
*
0204:  TBLRD*+
0206:  MOVF   FF5,F
0208:  BZ    0222
020A:  MOVFF  FF6,C6
020E:  MOVFF  FF7,C7
0212:  MOVFF  FF5,C8
0216:  BRA    01CC
0218:  MOVFF  C6,FF6
021C:  MOVFF  C7,FF7
0220:  BRA    0204
0222:  RETURN 0
....................  
.................... #list 
....................  
....................  
.................... #device     ADC = 10  
.................... #fuses      H4 
.................... #fuses      NOFCMEN 
.................... #fuses      NOIESO 
.................... #fuses      NOPUT 
.................... #fuses      NOBROWNOUT 
.................... #fuses      NOWDT 
.................... #fuses      NOWINEN 
.................... #fuses      NOPWMPIN 
.................... #fuses      HPOL_HIGH 
.................... #fuses      LPOL_HIGH 
.................... #fuses      T1LOWPOWER 
.................... #fuses      FLTAD4 
.................... #fuses      SSP_RC 
.................... #fuses      NOPWMPIN 
.................... #fuses      MCLR 
.................... #fuses      NOLVP 
.................... #fuses      NODEBUG 
....................  
.................... #define     RX_PIN      PIN_C7 
.................... #define     TX_PIN      PIN_C6 
.................... #define     RS485_RW    PIN_C0 
....................  
.................... #use delay(clock = 40MHZ) 
.................... #use rs232(xmit=TX_PIN, rcv=RX_PIN, enable=RS485_RW) 
*
00F8:  BCF    F94.0
00FA:  BSF    F8B.0
00FC:  BTFSS  F9E.4
00FE:  BRA    00FC
0100:  BCF    F94.0
0102:  BSF    F8B.0
0104:  MOVFF  CE,FAD
0108:  NOP   
010A:  BTFSS  FAC.1
010C:  BRA    010A
010E:  BCF    F94.0
0110:  BCF    F8B.0
0112:  GOTO   0130 (RETURN)
....................   
.................... // UART Registers and bits 
.................... #byte TXSTA=0xFAC 
.................... #bit  BRGH=TXSTA.2 
.................... #bit  SYNC=TXSTA.4 
....................  
.................... #byte RCSTA=0xFAB 
.................... #bit  ADDEN=RCSTA.3 
.................... #bit  RX9=RCSTA.6 
....................  
.................... #byte BAUDCTL=0xFAA 
.................... #bit  BRG16=BAUDCTL.3 
....................  
.................... int16 SPBRG;  
.................... #locate SPBRG=0xFAF 
....................  
....................  
.................... #endif 
....................  
....................  
....................  
.................... #include "uart.h" 
.................... /*  
....................  * File:   uart.h 
....................  * Author: Miroslav 
....................  * 
....................  * Created on November 20, 2015, 12:17 AM 
....................  */ 
....................  
.................... #ifndef UART_H 
.................... #define	UART_H 
....................  
.................... void serial_rcv_isr(void); 
.................... void serial_td_isr(void); 
.................... void timer1_overflow_isr(void); 
.................... BYTE uart_bgetc(void); 
.................... void uart_bputc(BYTE); 
.................... void uart_init(unsigned int, BYTE); 
.................... /* Uart parser state machine states */ 
.................... void parse_uart_data(void);  
.................... void wait_for_start(void);  // Waits for the # character 
.................... void wait_for_adr(void);    // Wait for device address 
.................... void parse_id(void);        // Reads the 3 char identifier, stores it in data_id 
.................... void parse_length(void);    // Reads [LENGTH] field, stores it in data_length 
.................... void parse_data(void);      // Reads the data into data_buffer[] 
.................... void parse_crc(void);       // Reads the crc checksum (and checks the data) 
.................... void parse_end(void);       // End of data packet ($) handling.. start all over. 
.................... short crc_check(void);       
....................  
.................... #endif	/* UART_H */ 
....................  
....................  
.................... #include "uart.c" 
.................... /******************************************************************************/ 
.................... /* File:   uart.c                                                             */ 
.................... /* Author: Miroslav Bozic                                                     */ 
.................... /*                                                                            */ 
.................... /* Library for UART receive and transmit data using custom protocol           */                           
.................... /* Data package structure:                                                    */ 
.................... /*   # [DEV_ADR] [MESSAGE_ID] [LENGTH] [DATA<0>,...DATA<LENGTH-1>] [CRC] $    */ 
.................... /* User parameters:                                                           */ 
.................... /*  UART_RX_TIMEOUT - UART RX timeout defined in ms (max 5ms)                 */ 
.................... /*  UART_BUFFER_SIZE - UART circular RX and TX buffers size                   */ 
.................... /*  DATA_BUFFER_SIZE - DATA buffer size                                       */ 
.................... /*                                                                            */ 
.................... /* User functions:                                                            */ 
.................... /* void uart_init(unsigned int baudrate, BYTE dev_id) - Must be called before */ 
.................... /* other function in library                                                  */ 
.................... /*                                                                            */ 
.................... /* void parse_uart_data() - call in while endless loop to start FSM parser    */ 
.................... /*                                                                            */ 
.................... /******************************************************************************/ 
....................  
.................... #include "uart.h" 
.................... /*  
....................  * File:   uart.h 
....................  * Author: Miroslav 
....................  * 
....................  * Created on November 20, 2015, 12:17 AM 
....................  */ 
....................  
.................... #ifndef UART_H 
.................... #define	UART_H 
....................  
.................... void serial_rcv_isr(void); 
.................... void serial_td_isr(void); 
.................... void timer1_overflow_isr(void); 
.................... BYTE uart_bgetc(void); 
.................... void uart_bputc(BYTE); 
.................... void uart_init(unsigned int, BYTE); 
.................... /* Uart parser state machine states */ 
.................... void parse_uart_data(void);  
.................... void wait_for_start(void);  // Waits for the # character 
.................... void wait_for_adr(void);    // Wait for device address 
.................... void parse_id(void);        // Reads the 3 char identifier, stores it in data_id 
.................... void parse_length(void);    // Reads [LENGTH] field, stores it in data_length 
.................... void parse_data(void);      // Reads the data into data_buffer[] 
.................... void parse_crc(void);       // Reads the crc checksum (and checks the data) 
.................... void parse_end(void);       // End of data packet ($) handling.. start all over. 
.................... short crc_check(void);       
....................  
.................... #endif	/* UART_H */ 
....................  
....................  
....................  
.................... //Defines 
.................... #define UART_RX_TIMEOUT     1                   // Timeout in mS 
.................... #define TIMER1_REFRESH      (long)(65536 - (UART_RX_TIMEOUT * 10000)) 
.................... #define UART_BUFFER_SIZE    64 
.................... #define DATA_BUFFER_SIZE    32     
.................... #define uart_bkbhit (in.next_in!=in.next_out) 
....................  
.................... // Type definitions 
.................... typedef struct buffer 
.................... { 
....................     BYTE uart_buffer[UART_BUFFER_SIZE]; 
....................     BYTE next_in; 
....................     BYTE next_out; 
.................... } t_buffer; 
....................  
.................... typedef struct package 
.................... { 
....................     BYTE data_buffer[DATA_BUFFER_SIZE]; 
....................     BYTE dev_address; 
....................     BYTE ID; 
....................     BYTE data_length; 
....................     BYTE crc; 
.................... } t_package; 
....................  
.................... typedef void (*t_fptr)(void); 
.................... //Variables 
.................... //UART 
.................... t_buffer in = {{0}, 0, 0}; 
.................... t_buffer out = {{0}, 0, 0}; 
.................... //Message parser 
.................... t_package data = {{0}, 0, 0, 0}; 
....................  
.................... //Pointer to a function that takes no parameters and returns nothing. 
.................... t_fptr parse_next = wait_for_start;          // Initialize the pointer to point to first state 
.................... int count = 0;                               // Variable used in parse_data function 
.................... // Functions 
.................... /** 
....................  * UART receive interrupt handler 
....................  */ 
.................... #int_rda 
.................... void serial_rcv_isr() 
.................... { 
....................     int t; 
....................      
....................     in.uart_buffer[in.next_in] = getc(); 
*
00C6:  CLRF   03
00C8:  MOVF   59,W
00CA:  ADDLW  19
00CC:  MOVWF  FE9
00CE:  MOVLW  00
00D0:  ADDWFC 03,W
00D2:  MOVWF  FEA
00D4:  BTFSS  F9E.5
00D6:  BRA    00D4
00D8:  MOVFF  FAE,FEF
....................     t = in.next_in; 
00DC:  MOVFF  59,CD
....................     in.next_in = (in.next_in + 1) % UART_BUFFER_SIZE; 
00E0:  MOVLW  01
00E2:  ADDWF  59,W
00E4:  ANDLW  3F
00E6:  MOVWF  59
....................     if (in.next_in == in.next_out) 
00E8:  MOVF   5A,W
00EA:  SUBWF  59,W
00EC:  BNZ   00F2
....................         in.next_in = t;                                // Buffer full 
00EE:  MOVFF  CD,59
.................... } 
.................... /** 
....................  * UART transmit interrupt handler 
....................  */ 
00F2:  BCF    F9E.5
00F4:  GOTO   0078
.................... #int_tbe 
.................... void serial_td_isr() 
.................... { 
....................     if (out.next_in != out.next_out) 
*
0116:  MOVF   x9C,W
0118:  SUBWF  x9B,W
011A:  BZ    013A
....................     { 
....................         putc(out.uart_buffer[out.next_out]); 
011C:  CLRF   03
011E:  MOVF   x9C,W
0120:  ADDLW  5B
0122:  MOVWF  FE9
0124:  MOVLW  00
0126:  ADDWFC 03,W
0128:  MOVWF  FEA
012A:  MOVFF  FEF,CE
012E:  BRA    00F8
....................         out.next_out = (out.next_out + 1) % UART_BUFFER_SIZE; 
0130:  MOVLW  01
0132:  ADDWF  x9C,W
0134:  ANDLW  3F
0136:  MOVWF  x9C
....................     } 
0138:  BRA    013C
....................     else 
....................         disable_interrupts(int_tbe); 
013A:  BCF    F9D.4
.................... } 
.................... /** 
....................  * TIMER1 overflow interrupt handler 
....................  */ 
013C:  BCF    F9E.4
013E:  GOTO   0078
.................... #int_timer1 
.................... void timer1_overflow_isr() 
.................... { 
....................     parse_next = wait_for_start; 
0142:  MOVLW  02
0144:  MOVWF  03
0146:  MOVLW  44
0148:  MOVWF  xC1
014A:  MOVFF  03,C2
....................     disable_interrupts(int_timer1); 
014E:  BCF    F9D.0
....................      
....................     /* Request for retransmission should be added here if it's needed */ 
....................     /* printf(uart_bputc, "Timeout occurred!\r\n");                  */ 
0150:  BCF    F9E.0
0152:  GOTO   0078
.................... } 
.................... /** 
....................  * uart_bgetc, Function return one byte from uart input buffer 
....................  * @return , first buffer that is written to the uart input buffer. 
....................  */ 
.................... BYTE uart_bgetc() 
.................... { 
....................     BYTE c; 
....................      
....................     c = in.uart_buffer[in.next_out]; 
*
0224:  CLRF   03
0226:  MOVF   5A,W
0228:  ADDLW  19
022A:  MOVWF  FE9
022C:  MOVLW  00
022E:  ADDWFC 03,W
0230:  MOVWF  FEA
0232:  MOVFF  FEF,C8
....................     in.next_out = (in.next_out + 1) % UART_BUFFER_SIZE; 
0236:  MOVLW  01
0238:  ADDWF  5A,W
023A:  ANDLW  3F
023C:  MOVWF  5A
....................     return (c); 
023E:  MOVFF  C8,01
0242:  RETURN 0
.................... } 
.................... /** 
....................  * bputc, Function add one byte to uart output buffer 
....................  * @param c, byte that will be added in uart output buffer. 
....................  */ 
.................... void uart_bputc(BYTE c) 
.................... { 
....................     short restart; 
....................     int ni; 
....................      
....................     restart = out.next_in == out.next_out; 
*
01CC:  BCF    xC9.0
01CE:  MOVF   x9C,W
01D0:  SUBWF  x9B,W
01D2:  BNZ   01D6
01D4:  BSF    xC9.0
....................     out.uart_buffer[out.next_in] = c; 
01D6:  CLRF   03
01D8:  MOVF   x9B,W
01DA:  ADDLW  5B
01DC:  MOVWF  FE9
01DE:  MOVLW  00
01E0:  ADDWFC 03,W
01E2:  MOVWF  FEA
01E4:  MOVFF  C8,FEF
....................     ni = (out.next_in + 1) % UART_BUFFER_SIZE; 
01E8:  MOVLW  01
01EA:  ADDWF  x9B,W
01EC:  ANDLW  3F
01EE:  MOVWF  xCA
....................     while(ni == out.next_out); 
01F0:  MOVF   x9C,W
01F2:  SUBWF  xCA,W
01F4:  BZ    01F0
....................     out.next_in = ni; 
01F6:  MOVFF  CA,9B
....................     if (restart) 
01FA:  BTFSS  xC9.0
01FC:  BRA    0200
....................         enable_interrupts(int_tbe); 
01FE:  BSF    F9D.4
0200:  GOTO   0218 (RETURN)
.................... } 
.................... /** 
....................  * uart_init, Function configure uart peripheral 
....................  * @param baudrate, Possible baudrates are: 1 - 19200, 2 - 115200, 3 - 256000 
....................  * @param dev_id, Device address used in RS485 communication 
....................  */ 
.................... void uart_init(unsigned int baudrate, BYTE dev_id) 
.................... { 
....................     unsigned long divisor; 
....................      
....................     switch (baudrate) 
*
018C:  MOVF   xC6,W
018E:  XORLW  01
0190:  BZ    019C
0192:  XORLW  03
0194:  BZ    01A6
0196:  XORLW  01
0198:  BZ    01AE
019A:  BRA    01B4
....................     { 
....................         case 1: 
....................             //setup_uart(19200); 
....................             divisor = 520; 
019C:  MOVLW  02
019E:  MOVWF  xC9
01A0:  MOVLW  08
01A2:  MOVWF  xC8
....................             break; 
01A4:  BRA    01B4
....................         case 2: 
....................             //setup_uart(115200); 
....................             divisor = 85; 
01A6:  CLRF   xC9
01A8:  MOVLW  55
01AA:  MOVWF  xC8
....................             break; 
01AC:  BRA    01B4
....................         case 3: 
....................             //setup_uart(256000); 
....................             divisor = 38; 
01AE:  CLRF   xC9
01B0:  MOVLW  26
01B2:  MOVWF  xC8
....................             break; 
....................     } 
....................      
....................     // Switch to 16bit mode 
....................     SYNC = 0; 
01B4:  BCF    FAC.4
....................     BRGH = 1; 
01B6:  BSF    FAC.2
....................     BRG16 = 1; 
01B8:  BSF    FAA.3
....................     // Select 9-bit reception 
....................     //RX9 = 0; 
....................     // Disable uart address detecion on receive 
....................     //ADDEN = 0; 
....................     // Configure uart speed 
....................     SPBRG = divisor; 
01BA:  MOVFF  C9,FB0
01BE:  MOVFF  C8,FAF
....................      
....................     // Timer 1 is used as timeout generator 
....................     // The time is defined using UART_RX_TIMEOUT 
....................     setup_timer_1(T1_INTERNAL | T1_DIV_BY_8); 
01C2:  MOVLW  B5
01C4:  MOVWF  FCD
....................      
....................     enable_interrupts(INT_RDA); 
01C6:  BSF    F9D.5
01C8:  GOTO   046E (RETURN)
.................... } 
.................... /** 
....................  * Function that call Finite State Machine parser 
....................  */ 
.................... void parse_uart_data() 
.................... { 
....................     (*parse_next)(); 
*
03DA:  CLRF   FEA
03DC:  MOVLW  C1
03DE:  MOVWF  FE9
03E0:  RCALL  0156
03E2:  GOTO   047C (RETURN)
.................... } 
.................... /** 
....................  * Function wait and check start character of a package 
....................  */ 
.................... void wait_for_start() 
.................... { 
....................     //* If there is no data available, return */ 
....................     if (!uart_bkbhit) 
*
0244:  MOVF   5A,W
0246:  SUBWF  59,W
0248:  BNZ   024C
....................         return; 
024A:  BRA    0276
....................      
....................     /* If the data is start character, we update the state */ 
....................     if (uart_bgetc() == '#') 
024C:  RCALL  0224
024E:  MOVF   01,W
0250:  SUBLW  23
0252:  BNZ   0276
....................     { 
....................         /* Initialize data variables, just in case */ 
....................         data.dev_address = 0; 
0254:  CLRF   xBD
....................         data.ID = 0; 
0256:  CLRF   xBE
....................         data.data_length = 0; 
0258:  CLRF   xBF
....................         data.crc = 0; 
025A:  CLRF   xC0
....................         count = 0; 
025C:  CLRF   xC3
....................         parse_next = wait_for_adr; // Next we parse the [ID] field 
025E:  MOVLW  02
0260:  MOVWF  03
0262:  MOVLW  78
0264:  MOVWF  xC1
0266:  MOVFF  03,C2
....................          
....................         set_timer1(TIMER1_REFRESH); 
026A:  MOVLW  D8
026C:  MOVWF  FCF
026E:  MOVLW  F0
0270:  MOVWF  FCE
....................         clear_interrupt(int_timer1); 
0272:  BCF    F9E.0
....................         enable_interrupts(int_timer1); 
0274:  BSF    F9D.0
....................     } 
0276:  RETURN 0
.................... } 
.................... /** 
....................  * Function receive address of a device that should response on message 
....................  */ 
.................... void wait_for_adr() 
.................... { 
....................     //* If there is no data available, return */ 
....................     if (!uart_bkbhit) 
0278:  MOVF   5A,W
027A:  SUBWF  59,W
027C:  BNZ   0280
....................         return; 
027E:  BRA    029A
....................      
....................     data.dev_address = uart_bgetc(); 
0280:  RCALL  0224
0282:  MOVFF  01,BD
....................     set_timer1(TIMER1_REFRESH); 
0286:  MOVLW  D8
0288:  MOVWF  FCF
028A:  MOVLW  F0
028C:  MOVWF  FCE
....................     parse_next = parse_id; 
028E:  MOVLW  02
0290:  MOVWF  03
0292:  MOVLW  9C
0294:  MOVWF  xC1
0296:  MOVFF  03,C2
029A:  RETURN 0
....................      
.................... } 
.................... /** 
....................  * Function receive package ID identifier 
....................  */ 
.................... void parse_id() 
.................... { 
....................     //* If there is no data available, return */ 
....................     if (!uart_bkbhit) 
029C:  MOVF   5A,W
029E:  SUBWF  59,W
02A0:  BNZ   02A4
....................         return; 
02A2:  BRA    02BE
....................      
....................     data.ID = uart_bgetc(); 
02A4:  RCALL  0224
02A6:  MOVFF  01,BE
....................     set_timer1(TIMER1_REFRESH); 
02AA:  MOVLW  D8
02AC:  MOVWF  FCF
02AE:  MOVLW  F0
02B0:  MOVWF  FCE
....................     parse_next = parse_length; 
02B2:  MOVLW  02
02B4:  MOVWF  03
02B6:  MOVLW  C0
02B8:  MOVWF  xC1
02BA:  MOVFF  03,C2
02BE:  RETURN 0
.................... } 
.................... /** 
....................  * Function receive data length of a package 
....................  */ 
.................... void parse_length() 
.................... { 
....................     //* If there is no data available, return */ 
....................     if (!uart_bkbhit) 
02C0:  MOVF   5A,W
02C2:  SUBWF  59,W
02C4:  BNZ   02C8
....................         return; 
02C6:  BRA    02E2
....................      
....................     data.data_length = uart_bgetc(); 
02C8:  RCALL  0224
02CA:  MOVFF  01,BF
....................     set_timer1(TIMER1_REFRESH); 
02CE:  MOVLW  D8
02D0:  MOVWF  FCF
02D2:  MOVLW  F0
02D4:  MOVWF  FCE
....................     parse_next = parse_data; 
02D6:  MOVLW  02
02D8:  MOVWF  03
02DA:  MOVLW  E4
02DC:  MOVWF  xC1
02DE:  MOVFF  03,C2
02E2:  RETURN 0
.................... } 
.................... /** 
....................  * Function receive data part of a package 
....................  */ 
.................... void parse_data() 
.................... { 
....................     //* If there is no data available, return */ 
....................     if (!uart_bkbhit) 
02E4:  MOVF   5A,W
02E6:  SUBWF  59,W
02E8:  BNZ   02EC
....................         return; 
02EA:  BRA    032C
....................     /* Add received byte to the data_length variable. 
....................        The bytes arrive in Big Endian order. */ 
....................     data.data_buffer[count] = uart_bgetc(); 
02EC:  CLRF   03
02EE:  MOVF   xC3,W
02F0:  ADDLW  9D
02F2:  MOVWF  01
02F4:  MOVLW  00
02F6:  ADDWFC 03,F
02F8:  MOVFF  01,C6
02FC:  MOVFF  03,C7
0300:  RCALL  0224
0302:  MOVFF  C7,FEA
0306:  MOVFF  C6,FE9
030A:  MOVFF  01,FEF
....................     count++; 
030E:  INCF   xC3,F
....................     set_timer1(TIMER1_REFRESH); 
0310:  MOVLW  D8
0312:  MOVWF  FCF
0314:  MOVLW  F0
0316:  MOVWF  FCE
....................     /* State transition rule */ 
....................     if (count == data.data_length) 
0318:  MOVF   xBF,W
031A:  SUBWF  xC3,W
031C:  BNZ   032C
....................     { 
....................         count = 0;  // Reset counter 
031E:  CLRF   xC3
....................         parse_next = parse_crc; 
0320:  MOVLW  03
0322:  MOVWF  03
0324:  MOVLW  6A
0326:  MOVWF  xC1
0328:  MOVFF  03,C2
....................     } 
032C:  RETURN 0
.................... } 
.................... /** 
....................  * Function receive and check CRC of a package 
....................  */ 
.................... void parse_crc() 
.................... { 
....................     //* If there is no data available, return */ 
....................     if (!uart_bkbhit) 
*
036A:  MOVF   5A,W
036C:  SUBWF  59,W
036E:  BNZ   0372
....................         return; 
0370:  BRA    03A0
....................      
....................     data.crc = uart_bgetc(); 
0372:  RCALL  0224
0374:  MOVFF  01,C0
....................     set_timer1(TIMER1_REFRESH); 
0378:  MOVLW  D8
037A:  MOVWF  FCF
037C:  MOVLW  F0
037E:  MOVWF  FCE
....................     // Check CRC 
....................     if (!crc_check()) 
0380:  BRA    032E
0382:  MOVF   01,F
0384:  BNZ   0394
....................     { 
....................         parse_next = wait_for_start; 
0386:  MOVLW  02
0388:  MOVWF  03
038A:  MOVLW  44
038C:  MOVWF  xC1
038E:  MOVFF  03,C2
....................         /* Request for retransmission should be added here if it's needed */ 
....................         /* printf(uart_bputc, "CRC failed!\r\n");                        */ 
....................         return; 
0392:  BRA    03A0
....................     } 
....................     parse_next = parse_end; 
0394:  MOVLW  03
0396:  MOVWF  03
0398:  MOVLW  A2
039A:  MOVWF  xC1
039C:  MOVFF  03,C2
03A0:  RETURN 0
.................... } 
.................... /** 
....................  * Function receive and check the last one character in a package 
....................  */ 
.................... void parse_end() 
.................... { 
....................     //* If there is no data available, return */ 
....................     if (!uart_bkbhit) 
03A2:  MOVF   5A,W
03A4:  SUBWF  59,W
03A6:  BNZ   03AA
....................         return; 
03A8:  BRA    03D8
....................      
....................     disable_interrupts(int_timer1); 
03AA:  BCF    F9D.0
....................     // If last byte isn't stop character, something goes wrong in transmission 
....................     // and package will be rejected 
....................     if (uart_bgetc() != '$') 
03AC:  RCALL  0224
03AE:  MOVF   01,W
03B0:  SUBLW  24
03B2:  BZ    03C2
....................     { 
....................         parse_next = wait_for_start; 
03B4:  MOVLW  02
03B6:  MOVWF  03
03B8:  MOVLW  44
03BA:  MOVWF  xC1
03BC:  MOVFF  03,C2
....................         /* Request for retransmission should be added here if it's needed */ 
....................         /* printf(uart_bputc, "STOP character reception failed!\r\n");    */ 
....................         return; 
03C0:  BRA    03D8
....................     } 
....................     parse_next = wait_for_start; 
03C2:  MOVLW  02
03C4:  MOVWF  03
03C6:  MOVLW  44
03C8:  MOVWF  xC1
03CA:  MOVFF  03,C2
....................     // Handle data 
....................     printf(uart_bputc, "Message receive done.\r\n"); 
03CE:  MOVLW  64
03D0:  MOVWF  FF6
03D2:  MOVLW  01
03D4:  MOVWF  FF7
03D6:  RCALL  0204
03D8:  RETURN 0
.................... } 
.................... /** 
....................  * Calculate and check CRC8 for received message 
....................  * @return TRUE if CRC check is valid or FALSE if CRC check is failed 
....................  */ 
.................... short crc_check() 
*
032E:  CLRF   xC7
.................... { 
....................     int i; 
....................     int crc8 = 0; 
....................     crc8 = crc8 ^ data.dev_address ^ data.ID ^ data.data_length; 
0330:  MOVF   xC7,W
0332:  XORWF  xBD,W
0334:  XORWF  xBE,W
0336:  XORWF  xBF,W
0338:  MOVWF  xC7
....................     for(i=0; i<data.data_length; i++) 
033A:  CLRF   xC6
033C:  MOVF   xBF,W
033E:  SUBWF  xC6,W
0340:  BC    0358
....................         crc8 = crc8 ^ data.data_buffer[i]; 
0342:  CLRF   03
0344:  MOVF   xC6,W
0346:  ADDLW  9D
0348:  MOVWF  FE9
034A:  MOVLW  00
034C:  ADDWFC 03,W
034E:  MOVWF  FEA
0350:  MOVF   FEF,W
0352:  XORWF  xC7,F
0354:  INCF   xC6,F
0356:  BRA    033C
....................      
....................     return crc8 == data.crc; 
0358:  MOVF   xC0,W
035A:  SUBWF  xC7,W
035C:  BZ    0362
035E:  MOVLW  00
0360:  BRA    0364
0362:  MOVLW  01
0364:  MOVWF  01
0366:  GOTO   0382 (RETURN)
.................... } 
....................  
....................  
....................  
.................... void main() 
*
03E6:  CLRF   FF8
03E8:  BCF    FD0.7
03EA:  BSF    07.7
03EC:  BCF    F94.0
03EE:  BCF    F8B.0
03F0:  BSF    FAA.3
03F2:  MOVLW  11
03F4:  MOVWF  FAF
03F6:  MOVLW  04
03F8:  MOVWF  FB0
03FA:  MOVLW  A6
03FC:  MOVWF  FAC
03FE:  MOVLW  90
0400:  MOVWF  FAB
0402:  MOVLW  02
0404:  MOVWF  03
0406:  MOVLW  44
0408:  MOVWF  xC1
040A:  MOVFF  03,C2
040E:  CLRF   xC3
0410:  CLRF   xC5
0412:  CLRF   xC4
0414:  BCF    FB9.0
0416:  BCF    FC1.6
0418:  BCF    FC1.7
041A:  MOVLW  00
041C:  MOVWF  FB8
041E:  BRA    0426
0420:  DATA A8,40
0422:  DATA 19,00
0424:  DATA 00,00
0426:  MOVLW  00
0428:  MOVWF  FF8
042A:  MOVLW  04
042C:  MOVWF  FF7
042E:  MOVLW  20
0430:  MOVWF  FF6
0432:  TBLRD*+
0434:  MOVF   FF5,W
0436:  MOVWF  00
0438:  XORLW  00
043A:  BZ    0462
043C:  TBLRD*+
043E:  MOVF   FF5,W
0440:  MOVWF  01
0442:  BTFSC  FE8.7
0444:  BRA    0450
0446:  ANDLW  0F
0448:  MOVWF  FEA
044A:  TBLRD*+
044C:  MOVFF  FF5,FE9
0450:  BTFSC  01.6
0452:  TBLRD*+
0454:  BTFSS  01.6
0456:  TBLRD*+
0458:  MOVFF  FF5,FEE
045C:  DCFSNZ 00,F
045E:  BRA    0432
0460:  BRA    0454
0462:  CLRF   FF8
.................... { 
....................     uart_init(2, 120);  
0464:  MOVLW  02
0466:  MOVWF  xC6
0468:  MOVLW  78
046A:  MOVWF  xC7
046C:  BRA    018C
....................     enable_interrupts(GLOBAL); 
046E:  MOVLW  C0
0470:  IORWF  FF2,F
....................      
....................     printf(uart_bputc, "\r\n\Running...\r\n"); 
0472:  MOVLW  7C
0474:  MOVWF  FF6
0476:  MOVLW  01
0478:  MOVWF  FF7
047A:  RCALL  0204
....................      
....................     while (1) 
....................     { 
....................         //delay_ms(5000); 
....................         //printf("\r\nBuffered data => \r\n"); 
....................         while (uart_bkbhit) 
047C:  MOVF   5A,W
047E:  SUBWF  59,W
0480:  BZ    0486
....................             parse_uart_data(); 
0482:  BRA    03DA
0484:  BRA    047C
0486:  BRA    047C
....................     } 
.................... } 
....................  
0488:  SLEEP 

Configuration Fuses:
   Word  1: 0600   H4 NOFCMEN NOIESO
   Word  2: 3E0D   NOPUT NOBROWNOUT BORV20 NOWDT WDT32768 NOWINEN
   Word  3: 9C3C   NOPWMPIN LPOL_HIGH HPOL_HIGH T1LOWPOWER FLTAD4 SSP_RC PWM4B5 EXCLKC3 MCLR
   Word  4: 0081   STVREN NOLVP NODEBUG
   Word  5: C00F   NOPROTECT NOCPB NOCPD
   Word  6: E00F   NOWRT NOWRTC NOWRTB NOWRTD
   Word  7: 400F   NOEBTR NOEBTRB
